; ModuleID = '29/1760.c'
source_filename = "29/1760.c"
target datalayout = "e-m:e-p270:32:32-p271:32:32-p272:64:64-i64:64-f80:128-n8:16:32:64-S128"
target triple = "x86_64-pc-linux-gnu"

@.str = private unnamed_addr constant [3 x i8] c"%d\00", align 1
@.str.1 = private unnamed_addr constant [7 x i8] c"%.3lf\0A\00", align 1

; Function Attrs: noinline nounwind uwtable
define dso_local i32 @main() #0 {
  %1 = alloca i32, align 4
  %2 = alloca i32, align 4
  %3 = alloca i32, align 4
  %4 = alloca i32, align 4
  %5 = alloca i32, align 4
  %6 = alloca [100 x double], align 16
  %7 = alloca [100 x double], align 16
  %8 = alloca double, align 8
  store i32 0, i32* %1, align 4
  %9 = bitcast [100 x double]* %6 to i8*
  call void @llvm.memset.p0i8.i64(i8* align 16 %9, i8 0, i64 800, i1 false)
  %10 = bitcast i8* %9 to <{ double, double, [98 x double] }>*
  %11 = getelementptr inbounds <{ double, double, [98 x double] }>, <{ double, double, [98 x double] }>* %10, i32 0, i32 0
  store double 1.000000e+00, double* %11, align 16
  %12 = getelementptr inbounds <{ double, double, [98 x double] }>, <{ double, double, [98 x double] }>* %10, i32 0, i32 1
  store double 2.000000e+00, double* %12, align 8
  store double 0.000000e+00, double* %8, align 8
  %13 = call i32 (i8*, ...) @__isoc99_scanf(i8* getelementptr inbounds ([3 x i8], [3 x i8]* @.str, i64 0, i64 0), i32* %2)
  store i32 2, i32* %3, align 4
  br label %14

14:                                               ; preds = %32, %0
  %15 = load i32, i32* %3, align 4
  %16 = icmp slt i32 %15, 100
  br i1 %16, label %17, label %35

17:                                               ; preds = %14
  %18 = load i32, i32* %3, align 4
  %19 = sub nsw i32 %18, 1
  %20 = sext i32 %19 to i64
  %21 = getelementptr inbounds [100 x double], [100 x double]* %6, i64 0, i64 %20
  %22 = load double, double* %21, align 8
  %23 = load i32, i32* %3, align 4
  %24 = sub nsw i32 %23, 2
  %25 = sext i32 %24 to i64
  %26 = getelementptr inbounds [100 x double], [100 x double]* %6, i64 0, i64 %25
  %27 = load double, double* %26, align 8
  %28 = fadd double %22, %27
  %29 = load i32, i32* %3, align 4
  %30 = sext i32 %29 to i64
  %31 = getelementptr inbounds [100 x double], [100 x double]* %6, i64 0, i64 %30
  store double %28, double* %31, align 8
  br label %32

32:                                               ; preds = %17
  %33 = load i32, i32* %3, align 4
  %34 = add nsw i32 %33, 1
  store i32 %34, i32* %3, align 4
  br label %14

35:                                               ; preds = %14
  store i32 0, i32* %3, align 4
  br label %36

36:                                               ; preds = %53, %35
  %37 = load i32, i32* %3, align 4
  %38 = icmp slt i32 %37, 99
  br i1 %38, label %39, label %56

39:                                               ; preds = %36
  %40 = load i32, i32* %3, align 4
  %41 = add nsw i32 %40, 1
  %42 = sext i32 %41 to i64
  %43 = getelementptr inbounds [100 x double], [100 x double]* %6, i64 0, i64 %42
  %44 = load double, double* %43, align 8
  %45 = load i32, i32* %3, align 4
  %46 = sext i32 %45 to i64
  %47 = getelementptr inbounds [100 x double], [100 x double]* %6, i64 0, i64 %46
  %48 = load double, double* %47, align 8
  %49 = fdiv double %44, %48
  %50 = load i32, i32* %3, align 4
  %51 = sext i32 %50 to i64
  %52 = getelementptr inbounds [100 x double], [100 x double]* %7, i64 0, i64 %51
  store double %49, double* %52, align 8
  br label %53

53:                                               ; preds = %39
  %54 = load i32, i32* %3, align 4
  %55 = add nsw i32 %54, 1
  store i32 %55, i32* %3, align 4
  br label %36

56:                                               ; preds = %36
  store i32 0, i32* %3, align 4
  br label %57

57:                                               ; preds = %80, %56
  %58 = load i32, i32* %3, align 4
  %59 = load i32, i32* %2, align 4
  %60 = icmp slt i32 %58, %59
  br i1 %60, label %61, label %83

61:                                               ; preds = %57
  %62 = call i32 (i8*, ...) @__isoc99_scanf(i8* getelementptr inbounds ([3 x i8], [3 x i8]* @.str, i64 0, i64 0), i32* %5)
  store i32 0, i32* %4, align 4
  br label %63

63:                                               ; preds = %74, %61
  %64 = load i32, i32* %4, align 4
  %65 = load i32, i32* %5, align 4
  %66 = icmp slt i32 %64, %65
  br i1 %66, label %67, label %77

67:                                               ; preds = %63
  %68 = load double, double* %8, align 8
  %69 = load i32, i32* %4, align 4
  %70 = sext i32 %69 to i64
  %71 = getelementptr inbounds [100 x double], [100 x double]* %7, i64 0, i64 %70
  %72 = load double, double* %71, align 8
  %73 = fadd double %68, %72
  store double %73, double* %8, align 8
  br label %74

74:                                               ; preds = %67
  %75 = load i32, i32* %4, align 4
  %76 = add nsw i32 %75, 1
  store i32 %76, i32* %4, align 4
  br label %63

77:                                               ; preds = %63
  %78 = load double, double* %8, align 8
  %79 = call i32 (i8*, ...) @printf(i8* getelementptr inbounds ([7 x i8], [7 x i8]* @.str.1, i64 0, i64 0), double %78)
  store double 0.000000e+00, double* %8, align 8
  br label %80

80:                                               ; preds = %77
  %81 = load i32, i32* %3, align 4
  %82 = add nsw i32 %81, 1
  store i32 %82, i32* %3, align 4
  br label %57

83:                                               ; preds = %57
  ret i32 0
}

; Function Attrs: argmemonly nounwind willreturn
declare void @llvm.memset.p0i8.i64(i8* nocapture writeonly, i8, i64, i1 immarg) #1

declare dso_local i32 @__isoc99_scanf(i8*, ...) #2

declare dso_local i32 @printf(i8*, ...) #2


!llvm.module.flags = !{!0}
!llvm.ident = !{!1}

!0 = !{i32 1, !"wchar_size", i32 4}
!1 = !{!"clang version 10.0.0-4ubuntu1 "}
